; Function Attrs: mustprogress uwtable
define void @_ZN3DHT11make_greensEv(ptr noundef nonnull readonly align 8 captures(none) dereferenceable(56) %0) local_unnamed_addr #0 align 2 {
  %2 = getelementptr inbounds nuw i8, ptr %0, i64 40
  %3 = load ptr, ptr %2, align 8, !tbaa !87
  %4 = getelementptr inbounds nuw i8, ptr %3, i64 28
  %5 = load i16, ptr %4, align 4, !tbaa !11
  %.not = icmp eq i16 %5, 0
  br i1 %.not, label %._crit_edge, label %.lr.ph

._crit_edge:                                      ; preds = %.lr.ph, %1
  ret void

.lr.ph:                                           ; preds = %1, %.lr.ph
  %.03 = phi i32 [ %6, %.lr.ph ], [ 0, %1 ]
  tail call void @_ZN3DHT10make_glineEi(ptr noundef nonnull align 8 dereferenceable(56) %0, i32 noundef %.03)
  %6 = add nuw nsw i32 %.03, 1
  %7 = load ptr, ptr %2, align 8, !tbaa !87
  %8 = getelementptr inbounds nuw i8, ptr %7, i64 28
  %9 = load i16, ptr %8, align 4, !tbaa !11
  %10 = zext i16 %9 to i32
  %11 = icmp samesign ult i32 %6, %10
  br i1 %11, label %.lr.ph, label %._crit_edge, !llvm.loop !116
}